; Function Attrs: nounwind uwtable
define i32 @EVP_PKEY_get_default_digest_name(ptr noundef %0, ptr noundef %1, i64 noundef %2) local_unnamed_addr #0 {
  %4 = alloca i32, align 4
  %5 = getelementptr inbounds nuw i8, ptr %0, i64 8
  %6 = load ptr, ptr %5, align 8, !tbaa !20
  %7 = icmp eq ptr %6, null
  br i1 %7, label %8, label %14

8:                                                ; preds = %3
  %9 = getelementptr inbounds nuw i8, ptr %0, i64 96
  %10 = load ptr, ptr %9, align 8, !tbaa !30
  %11 = getelementptr inbounds nuw i8, ptr %0, i64 104
  %12 = load ptr, ptr %11, align 8, !tbaa !33
  %13 = tail call i32 @evp_keymgmt_util_get_deflt_digest_name(ptr noundef %10, ptr noundef %12, ptr noundef %1, i64 noundef %2) #12
  br label %24

14:                                               ; preds = %3
  call void @llvm.lifetime.start.p0(i64 4, ptr nonnull %4) #12
  store i32 0, ptr %4, align 4, !tbaa !74
  %15 = getelementptr inbounds nuw i8, ptr %6, i64 176
  %16 = load ptr, ptr %15, align 8, !tbaa !94
  %17 = icmp eq ptr %16, null
  br i1 %17, label %.thread, label %EVP_PKEY_get_default_digest_nid.exit

EVP_PKEY_get_default_digest_nid.exit:             ; preds = %14
  %18 = call i32 %16(ptr noundef nonnull %0, i32 noundef 3, i64 noundef 0, ptr noundef nonnull %4) #12
  %19 = icmp sgt i32 %18, 0
  br i1 %19, label %20, label %.thread

20:                                               ; preds = %EVP_PKEY_get_default_digest_nid.exit
  %21 = load i32, ptr %4, align 4, !tbaa !74
  %22 = call ptr @OBJ_nid2sn(i32 noundef %21) #12
  %23 = call i64 @OPENSSL_strlcpy(ptr noundef %1, ptr noundef %22, i64 noundef %2) #12
  br label %.thread

.thread:                                          ; preds = %14, %EVP_PKEY_get_default_digest_nid.exit, %20
  %.0.i1315 = phi i32 [ %18, %20 ], [ %18, %EVP_PKEY_get_default_digest_nid.exit ], [ -2, %14 ]
  call void @llvm.lifetime.end.p0(i64 4, ptr nonnull %4) #12
  br label %24

24:                                               ; preds = %.thread, %8
  %.0 = phi i32 [ %13, %8 ], [ %.0.i1315, %.thread ]
  ret i32 %.0
}